ARM GAS  C:\Users\0\AppData\Local\Temp\ccjyofJG.s 			page 1


   1              		.syntax unified
   2              		.cpu cortex-m0
   3              		.fpu softvfp
   4              		.eabi_attribute 20, 1
   5              		.eabi_attribute 21, 1
   6              		.eabi_attribute 23, 3
   7              		.eabi_attribute 24, 1
   8              		.eabi_attribute 25, 1
   9              		.eabi_attribute 26, 1
  10              		.eabi_attribute 30, 1
  11              		.eabi_attribute 34, 0
  12              		.eabi_attribute 18, 4
  13              		.thumb
  14              		.syntax unified
  15              		.file	"ds1307.c"
  16              		.text
  17              	.Ltext0:
  18              		.cfi_sections	.debug_frame
  19              		.section	.text.RTC_I2C,"ax",%progbits
  20              		.align	2
  21              		.global	RTC_I2C
  22              		.code	16
  23              		.thumb_func
  24              		.type	RTC_I2C, %function
  25              	RTC_I2C:
  26              	.LFB60:
  27              		.file 1 "ds1307.c"
   1:ds1307.c      **** /* ========================================
   2:ds1307.c      ****  *
   3:ds1307.c      ****  * Copyright YOUR COMPANY, THE YEAR
   4:ds1307.c      ****  * All Rights Reserved
   5:ds1307.c      ****  * UNPUBLISHED, LICENSED SOFTWARE.
   6:ds1307.c      ****  *
   7:ds1307.c      ****  * CONFIDENTIAL AND PROPRIETARY INFORMATION
   8:ds1307.c      ****  * WHICH IS THE PROPERTY OF your company.
   9:ds1307.c      ****  *
  10:ds1307.c      ****  * ========================================
  11:ds1307.c      **** */
  12:ds1307.c      **** #include "project.h"
  13:ds1307.c      **** #include "stdio.h"
  14:ds1307.c      **** 
  15:ds1307.c      ****  ///RTC variables/////
  16:ds1307.c      **** #define SlaveAddress 0x68
  17:ds1307.c      **** uint8 Table[7];
  18:ds1307.c      **** #define MON 1
  19:ds1307.c      **** #define TUES 2
  20:ds1307.c      **** #define WEN 3
  21:ds1307.c      **** #define THUS 4
  22:ds1307.c      **** #define FRI 5
  23:ds1307.c      **** #define SAT 6
  24:ds1307.c      **** #define SUN 7
  25:ds1307.c      **** 
  26:ds1307.c      **** /*typedef struct{
  27:ds1307.c      ****    uint8_t second;
  28:ds1307.c      ****    uint8_t minute;
  29:ds1307.c      ****    uint8_t hour;
  30:ds1307.c      ****    uint8_t day;
ARM GAS  C:\Users\0\AppData\Local\Temp\ccjyofJG.s 			page 2


  31:ds1307.c      ****    uint8_t date;
  32:ds1307.c      ****    uint8_t month;
  33:ds1307.c      ****    uint16_t year;
  34:ds1307.c      **** }RTC_t;
  35:ds1307.c      **** 
  36:ds1307.c      **** RTC_t rtcTime = 
  37:ds1307.c      **** {
  38:ds1307.c      ****     .second = 0x00,
  39:ds1307.c      ****     .minute = 0x08,
  40:ds1307.c      ****     .hour = 0x04,
  41:ds1307.c      ****     .day = 0x04,
  42:ds1307.c      ****     .date = 0x18,
  43:ds1307.c      ****     .month = 0x11,
  44:ds1307.c      ****     .year = 0x20,
  45:ds1307.c      **** };*/
  46:ds1307.c      **** 
  47:ds1307.c      **** ////RTC   ///////
  48:ds1307.c      **** void RTC_I2C(){
  28              		.loc 1 48 0
  29              		.cfi_startproc
  30              		@ args = 0, pretend = 0, frame = 0
  31              		@ frame_needed = 0, uses_anonymous_args = 0
  32 0000 10B5     		push	{r4, lr}
  33              		.cfi_def_cfa_offset 8
  34              		.cfi_offset 4, -8
  35              		.cfi_offset 14, -4
  36              	.L2:
  49:ds1307.c      ****     uint8 result,i;
  50:ds1307.c      ****         do{
  51:ds1307.c      ****            result=I2C_I2CMasterSendStart(SlaveAddress, I2C_I2C_WRITE_XFER_MODE, 1000);
  37              		.loc 1 51 0 discriminator 1
  38 0002 FA22     		movs	r2, #250
  39 0004 9200     		lsls	r2, r2, #2
  40 0006 0021     		movs	r1, #0
  41 0008 6820     		movs	r0, #104
  42 000a FFF7FEFF 		bl	I2C_I2CMasterSendStart
  43              	.LVL0:
  44 000e C0B2     		uxtb	r0, r0
  45              	.LVL1:
  52:ds1307.c      ****         }
  53:ds1307.c      ****         while(result!=I2C_I2C_MSTR_NO_ERROR);
  46              		.loc 1 53 0 discriminator 1
  47 0010 0028     		cmp	r0, #0
  48 0012 F6D1     		bne	.L2
  54:ds1307.c      ****         
  55:ds1307.c      ****         result=I2C_I2CMasterWriteByte(0x00, 1000);
  49              		.loc 1 55 0
  50 0014 FA24     		movs	r4, #250
  51 0016 A400     		lsls	r4, r4, #2
  52 0018 2100     		movs	r1, r4
  53 001a FFF7FEFF 		bl	I2C_I2CMasterWriteByte
  54              	.LVL2:
  56:ds1307.c      ****         result=I2C_I2CMasterSendRestart(SlaveAddress, I2C_I2C_READ_XFER_MODE, 1000);
  55              		.loc 1 56 0
  56 001e 2200     		movs	r2, r4
  57 0020 0121     		movs	r1, #1
  58 0022 6820     		movs	r0, #104
ARM GAS  C:\Users\0\AppData\Local\Temp\ccjyofJG.s 			page 3


  59 0024 FFF7FEFF 		bl	I2C_I2CMasterSendRestart
  60              	.LVL3:
  57:ds1307.c      ****         for(i=0;i<6;i++){
  61              		.loc 1 57 0
  62 0028 0024     		movs	r4, #0
  63 002a 08E0     		b	.L3
  64              	.LVL4:
  65              	.L4:
  58:ds1307.c      ****             I2C_I2CMasterReadByte(I2C_I2C_ACK_DATA, &Table[i], 1000);
  66              		.loc 1 58 0 discriminator 3
  67 002c 0A49     		ldr	r1, .L5
  68 002e 6118     		adds	r1, r4, r1
  69 0030 FA22     		movs	r2, #250
  70 0032 9200     		lsls	r2, r2, #2
  71 0034 0020     		movs	r0, #0
  72 0036 FFF7FEFF 		bl	I2C_I2CMasterReadByte
  73              	.LVL5:
  57:ds1307.c      ****         for(i=0;i<6;i++){
  74              		.loc 1 57 0 discriminator 3
  75 003a 0134     		adds	r4, r4, #1
  76              	.LVL6:
  77 003c E4B2     		uxtb	r4, r4
  78              	.LVL7:
  79              	.L3:
  57:ds1307.c      ****         for(i=0;i<6;i++){
  80              		.loc 1 57 0 is_stmt 0 discriminator 1
  81 003e 052C     		cmp	r4, #5
  82 0040 F4D9     		bls	.L4
  59:ds1307.c      ****         }
  60:ds1307.c      ****             I2C_I2CMasterReadByte(I2C_I2C_NAK_DATA, &Table[6],1000);
  83              		.loc 1 60 0 is_stmt 1
  84 0042 FA24     		movs	r4, #250
  85              	.LVL8:
  86 0044 A400     		lsls	r4, r4, #2
  87 0046 2200     		movs	r2, r4
  88 0048 0449     		ldr	r1, .L5+4
  89 004a 0120     		movs	r0, #1
  90 004c FFF7FEFF 		bl	I2C_I2CMasterReadByte
  91              	.LVL9:
  61:ds1307.c      ****         I2C_I2CMasterSendStop(1000);       
  92              		.loc 1 61 0
  93 0050 2000     		movs	r0, r4
  94 0052 FFF7FEFF 		bl	I2C_I2CMasterSendStop
  95              	.LVL10:
  62:ds1307.c      **** }
  96              		.loc 1 62 0
  97              		@ sp needed
  98 0056 10BD     		pop	{r4, pc}
  99              	.L6:
 100              		.align	2
 101              	.L5:
 102 0058 00000000 		.word	Table
 103 005c 06000000 		.word	Table+6
 104              		.cfi_endproc
 105              	.LFE60:
 106              		.size	RTC_I2C, .-RTC_I2C
 107              		.section	.text.DAY_DISPLAY,"ax",%progbits
ARM GAS  C:\Users\0\AppData\Local\Temp\ccjyofJG.s 			page 4


 108              		.align	2
 109              		.global	DAY_DISPLAY
 110              		.code	16
 111              		.thumb_func
 112              		.type	DAY_DISPLAY, %function
 113              	DAY_DISPLAY:
 114              	.LFB61:
  63:ds1307.c      **** 
  64:ds1307.c      **** void DAY_DISPLAY(){
 115              		.loc 1 64 0
 116              		.cfi_startproc
 117              		@ args = 0, pretend = 0, frame = 0
 118              		@ frame_needed = 0, uses_anonymous_args = 0
 119 0000 10B5     		push	{r4, lr}
 120              		.cfi_def_cfa_offset 8
 121              		.cfi_offset 4, -8
 122              		.cfi_offset 14, -4
  65:ds1307.c      ****     switch(Table[3]){
 123              		.loc 1 65 0
 124 0002 144B     		ldr	r3, .L18
 125 0004 DB78     		ldrb	r3, [r3, #3]
 126 0006 072B     		cmp	r3, #7
 127 0008 1FD8     		bhi	.L8
 128 000a 9B00     		lsls	r3, r3, #2
 129 000c 124A     		ldr	r2, .L18+4
 130 000e D358     		ldr	r3, [r2, r3]
 131 0010 9F46     		mov	pc, r3
 132              		.section	.rodata
 133              		.align	2
 134              	.L10:
 135 0000 4A000000 		.word	.L8
 136 0004 12000000 		.word	.L9
 137 0008 1A000000 		.word	.L11
 138 000c 22000000 		.word	.L12
 139 0010 2A000000 		.word	.L13
 140 0014 32000000 		.word	.L14
 141 0018 3A000000 		.word	.L15
 142 001c 42000000 		.word	.L16
 143              		.section	.text.DAY_DISPLAY
 144              	.L9:
  66:ds1307.c      ****         case MON:
  67:ds1307.c      ****             LCD_PrintString("MON");
 145              		.loc 1 67 0
 146 0012 1248     		ldr	r0, .L18+8
 147 0014 FFF7FEFF 		bl	LCD_PrintString
 148              	.LVL11:
  68:ds1307.c      ****             break;
 149              		.loc 1 68 0
 150 0018 1AE0     		b	.L7
 151              	.L11:
  69:ds1307.c      ****         case TUES:
  70:ds1307.c      ****             LCD_PrintString("TUES");
 152              		.loc 1 70 0
 153 001a 1148     		ldr	r0, .L18+12
 154 001c FFF7FEFF 		bl	LCD_PrintString
 155              	.LVL12:
  71:ds1307.c      ****             break;
ARM GAS  C:\Users\0\AppData\Local\Temp\ccjyofJG.s 			page 5


 156              		.loc 1 71 0
 157 0020 16E0     		b	.L7
 158              	.L12:
  72:ds1307.c      ****         case WEN:
  73:ds1307.c      ****             LCD_PrintString("WEN");
 159              		.loc 1 73 0
 160 0022 1048     		ldr	r0, .L18+16
 161 0024 FFF7FEFF 		bl	LCD_PrintString
 162              	.LVL13:
  74:ds1307.c      ****             break;
 163              		.loc 1 74 0
 164 0028 12E0     		b	.L7
 165              	.L13:
  75:ds1307.c      ****         case THUS:
  76:ds1307.c      ****             LCD_PrintString("THUS");
 166              		.loc 1 76 0
 167 002a 0F48     		ldr	r0, .L18+20
 168 002c FFF7FEFF 		bl	LCD_PrintString
 169              	.LVL14:
  77:ds1307.c      ****             break;
 170              		.loc 1 77 0
 171 0030 0EE0     		b	.L7
 172              	.L14:
  78:ds1307.c      ****         case FRI:
  79:ds1307.c      ****             LCD_PrintString("FRI");
 173              		.loc 1 79 0
 174 0032 0E48     		ldr	r0, .L18+24
 175 0034 FFF7FEFF 		bl	LCD_PrintString
 176              	.LVL15:
  80:ds1307.c      ****             break;
 177              		.loc 1 80 0
 178 0038 0AE0     		b	.L7
 179              	.L15:
  81:ds1307.c      ****         case SAT:
  82:ds1307.c      ****             LCD_PrintString("SAT");
 180              		.loc 1 82 0
 181 003a 0D48     		ldr	r0, .L18+28
 182 003c FFF7FEFF 		bl	LCD_PrintString
 183              	.LVL16:
  83:ds1307.c      ****             break;
 184              		.loc 1 83 0
 185 0040 06E0     		b	.L7
 186              	.L16:
  84:ds1307.c      ****         case SUN:
  85:ds1307.c      ****             LCD_PrintString("SUN");
 187              		.loc 1 85 0
 188 0042 0C48     		ldr	r0, .L18+32
 189 0044 FFF7FEFF 		bl	LCD_PrintString
 190              	.LVL17:
  86:ds1307.c      ****             break;
 191              		.loc 1 86 0
 192 0048 02E0     		b	.L7
 193              	.L8:
  87:ds1307.c      ****         default: 
  88:ds1307.c      ****             LCD_PrintString("MON");
 194              		.loc 1 88 0
 195 004a 0448     		ldr	r0, .L18+8
ARM GAS  C:\Users\0\AppData\Local\Temp\ccjyofJG.s 			page 6


 196 004c FFF7FEFF 		bl	LCD_PrintString
 197              	.LVL18:
 198              	.L7:
  89:ds1307.c      ****             break;    
  90:ds1307.c      ****     }
  91:ds1307.c      **** }
 199              		.loc 1 91 0
 200              		@ sp needed
 201 0050 10BD     		pop	{r4, pc}
 202              	.L19:
 203 0052 C046     		.align	2
 204              	.L18:
 205 0054 00000000 		.word	Table
 206 0058 00000000 		.word	.L10
 207 005c 00000000 		.word	.LC4
 208 0060 04000000 		.word	.LC6
 209 0064 0C000000 		.word	.LC8
 210 0068 10000000 		.word	.LC10
 211 006c 18000000 		.word	.LC12
 212 0070 1C000000 		.word	.LC14
 213 0074 20000000 		.word	.LC16
 214              		.cfi_endproc
 215              	.LFE61:
 216              		.size	DAY_DISPLAY, .-DAY_DISPLAY
 217              		.section	.text.print_hour,"ax",%progbits
 218              		.align	2
 219              		.global	print_hour
 220              		.code	16
 221              		.thumb_func
 222              		.type	print_hour, %function
 223              	print_hour:
 224              	.LFB62:
  92:ds1307.c      **** 
  93:ds1307.c      **** void print_hour(uint8_t hour){
 225              		.loc 1 93 0
 226              		.cfi_startproc
 227              		@ args = 0, pretend = 0, frame = 0
 228              		@ frame_needed = 0, uses_anonymous_args = 0
 229              	.LVL19:
 230 0000 10B5     		push	{r4, lr}
 231              		.cfi_def_cfa_offset 8
 232              		.cfi_offset 4, -8
 233              		.cfi_offset 14, -4
 234 0002 0400     		movs	r4, r0
  94:ds1307.c      ****     LCD_PrintNumber((hour>>4)&0x03);   
 235              		.loc 1 94 0
 236 0004 0309     		lsrs	r3, r0, #4
 237 0006 0320     		movs	r0, #3
 238              	.LVL20:
 239 0008 1840     		ands	r0, r3
 240 000a FFF7FEFF 		bl	LCD_PrintU32Number
 241              	.LVL21:
  95:ds1307.c      ****     LCD_PrintNumber(hour&0X0F);
 242              		.loc 1 95 0
 243 000e 0F20     		movs	r0, #15
 244 0010 2040     		ands	r0, r4
 245 0012 FFF7FEFF 		bl	LCD_PrintU32Number
ARM GAS  C:\Users\0\AppData\Local\Temp\ccjyofJG.s 			page 7


 246              	.LVL22:
  96:ds1307.c      **** }
 247              		.loc 1 96 0
 248              		@ sp needed
 249 0016 10BD     		pop	{r4, pc}
 250              		.cfi_endproc
 251              	.LFE62:
 252              		.size	print_hour, .-print_hour
 253              		.section	.text.print_minutes,"ax",%progbits
 254              		.align	2
 255              		.global	print_minutes
 256              		.code	16
 257              		.thumb_func
 258              		.type	print_minutes, %function
 259              	print_minutes:
 260              	.LFB63:
  97:ds1307.c      **** 
  98:ds1307.c      **** void print_minutes(uint8_t minutes){
 261              		.loc 1 98 0
 262              		.cfi_startproc
 263              		@ args = 0, pretend = 0, frame = 0
 264              		@ frame_needed = 0, uses_anonymous_args = 0
 265              	.LVL23:
 266 0000 10B5     		push	{r4, lr}
 267              		.cfi_def_cfa_offset 8
 268              		.cfi_offset 4, -8
 269              		.cfi_offset 14, -4
 270 0002 0400     		movs	r4, r0
  99:ds1307.c      ****     LCD_PrintNumber(minutes>>4);    
 271              		.loc 1 99 0
 272 0004 0009     		lsrs	r0, r0, #4
 273              	.LVL24:
 274 0006 FFF7FEFF 		bl	LCD_PrintU32Number
 275              	.LVL25:
 100:ds1307.c      ****     LCD_PrintNumber(minutes&0x0F);
 276              		.loc 1 100 0
 277 000a 0F20     		movs	r0, #15
 278 000c 2040     		ands	r0, r4
 279 000e FFF7FEFF 		bl	LCD_PrintU32Number
 280              	.LVL26:
 101:ds1307.c      **** }
 281              		.loc 1 101 0
 282              		@ sp needed
 283 0012 10BD     		pop	{r4, pc}
 284              		.cfi_endproc
 285              	.LFE63:
 286              		.size	print_minutes, .-print_minutes
 287              		.section	.text.print_second,"ax",%progbits
 288              		.align	2
 289              		.global	print_second
 290              		.code	16
 291              		.thumb_func
 292              		.type	print_second, %function
 293              	print_second:
 294              	.LFB64:
 102:ds1307.c      **** 
 103:ds1307.c      **** void print_second(uint8_t second){
ARM GAS  C:\Users\0\AppData\Local\Temp\ccjyofJG.s 			page 8


 295              		.loc 1 103 0
 296              		.cfi_startproc
 297              		@ args = 0, pretend = 0, frame = 0
 298              		@ frame_needed = 0, uses_anonymous_args = 0
 299              	.LVL27:
 300 0000 10B5     		push	{r4, lr}
 301              		.cfi_def_cfa_offset 8
 302              		.cfi_offset 4, -8
 303              		.cfi_offset 14, -4
 304 0002 0400     		movs	r4, r0
 104:ds1307.c      ****     LCD_PrintNumber(second>>4&0x07);    
 305              		.loc 1 104 0
 306 0004 0309     		lsrs	r3, r0, #4
 307 0006 0720     		movs	r0, #7
 308              	.LVL28:
 309 0008 1840     		ands	r0, r3
 310 000a FFF7FEFF 		bl	LCD_PrintU32Number
 311              	.LVL29:
 105:ds1307.c      ****     LCD_PrintNumber(second&0x0F);
 312              		.loc 1 105 0
 313 000e 0F20     		movs	r0, #15
 314 0010 2040     		ands	r0, r4
 315 0012 FFF7FEFF 		bl	LCD_PrintU32Number
 316              	.LVL30:
 106:ds1307.c      **** }
 317              		.loc 1 106 0
 318              		@ sp needed
 319 0016 10BD     		pop	{r4, pc}
 320              		.cfi_endproc
 321              	.LFE64:
 322              		.size	print_second, .-print_second
 323              		.section	.text.print_yearMonthDay,"ax",%progbits
 324              		.align	2
 325              		.global	print_yearMonthDay
 326              		.code	16
 327              		.thumb_func
 328              		.type	print_yearMonthDay, %function
 329              	print_yearMonthDay:
 330              	.LFB65:
 107:ds1307.c      **** 
 108:ds1307.c      **** void print_yearMonthDay(uint8_t value){
 331              		.loc 1 108 0
 332              		.cfi_startproc
 333              		@ args = 0, pretend = 0, frame = 0
 334              		@ frame_needed = 0, uses_anonymous_args = 0
 335              	.LVL31:
 336 0000 10B5     		push	{r4, lr}
 337              		.cfi_def_cfa_offset 8
 338              		.cfi_offset 4, -8
 339              		.cfi_offset 14, -4
 340 0002 0400     		movs	r4, r0
 109:ds1307.c      ****     LCD_PrintNumber(value>>4);
 341              		.loc 1 109 0
 342 0004 0009     		lsrs	r0, r0, #4
 343              	.LVL32:
 344 0006 FFF7FEFF 		bl	LCD_PrintU32Number
 345              	.LVL33:
ARM GAS  C:\Users\0\AppData\Local\Temp\ccjyofJG.s 			page 9


 110:ds1307.c      ****     LCD_PrintNumber(value&0x0F);
 346              		.loc 1 110 0
 347 000a 0F20     		movs	r0, #15
 348 000c 2040     		ands	r0, r4
 349 000e FFF7FEFF 		bl	LCD_PrintU32Number
 350              	.LVL34:
 111:ds1307.c      **** }
 351              		.loc 1 111 0
 352              		@ sp needed
 353 0012 10BD     		pop	{r4, pc}
 354              		.cfi_endproc
 355              	.LFE65:
 356              		.size	print_yearMonthDay, .-print_yearMonthDay
 357              		.section	.text.DS1307_DISPLAY_LCD,"ax",%progbits
 358              		.align	2
 359              		.global	DS1307_DISPLAY_LCD
 360              		.code	16
 361              		.thumb_func
 362              		.type	DS1307_DISPLAY_LCD, %function
 363              	DS1307_DISPLAY_LCD:
 364              	.LFB66:
 112:ds1307.c      **** void DS1307_DISPLAY_LCD(){
 365              		.loc 1 112 0
 366              		.cfi_startproc
 367              		@ args = 0, pretend = 0, frame = 0
 368              		@ frame_needed = 0, uses_anonymous_args = 0
 369 0000 10B5     		push	{r4, lr}
 370              		.cfi_def_cfa_offset 8
 371              		.cfi_offset 4, -8
 372              		.cfi_offset 14, -4
 113:ds1307.c      ****     LCD_ClearDisplay();
 373              		.loc 1 113 0
 374 0002 0120     		movs	r0, #1
 375 0004 FFF7FEFF 		bl	LCD_WriteControl
 376              	.LVL35:
 114:ds1307.c      ****     LCD_Position(0,0);
 377              		.loc 1 114 0
 378 0008 0021     		movs	r1, #0
 379 000a 0020     		movs	r0, #0
 380 000c FFF7FEFF 		bl	LCD_Position
 381              	.LVL36:
 115:ds1307.c      ****     print_hour(Table[2]);   // hour 
 382              		.loc 1 115 0
 383 0010 154C     		ldr	r4, .L25
 384 0012 A078     		ldrb	r0, [r4, #2]
 385 0014 FFF7FEFF 		bl	print_hour
 386              	.LVL37:
 116:ds1307.c      ****     LCD_PutChar(':');
 387              		.loc 1 116 0
 388 0018 3A20     		movs	r0, #58
 389 001a FFF7FEFF 		bl	LCD_PutChar
 390              	.LVL38:
 117:ds1307.c      ****     print_minutes(Table[1]);    // minutes
 391              		.loc 1 117 0
 392 001e 6078     		ldrb	r0, [r4, #1]
 393 0020 FFF7FEFF 		bl	print_minutes
 394              	.LVL39:
ARM GAS  C:\Users\0\AppData\Local\Temp\ccjyofJG.s 			page 10


 118:ds1307.c      ****     LCD_PutChar(':');
 395              		.loc 1 118 0
 396 0024 3A20     		movs	r0, #58
 397 0026 FFF7FEFF 		bl	LCD_PutChar
 398              	.LVL40:
 119:ds1307.c      ****     print_second(Table[0]); // Second
 399              		.loc 1 119 0
 400 002a 2078     		ldrb	r0, [r4]
 401 002c FFF7FEFF 		bl	print_second
 402              	.LVL41:
 120:ds1307.c      **** 
 121:ds1307.c      **** 
 122:ds1307.c      ****     LCD_Position(1,0);
 403              		.loc 1 122 0
 404 0030 0021     		movs	r1, #0
 405 0032 0120     		movs	r0, #1
 406 0034 FFF7FEFF 		bl	LCD_Position
 407              	.LVL42:
 123:ds1307.c      ****     LCD_PrintString("20");
 408              		.loc 1 123 0
 409 0038 0C48     		ldr	r0, .L25+4
 410 003a FFF7FEFF 		bl	LCD_PrintString
 411              	.LVL43:
 124:ds1307.c      ****     print_yearMonthDay(Table[6]); //year
 412              		.loc 1 124 0
 413 003e A079     		ldrb	r0, [r4, #6]
 414 0040 FFF7FEFF 		bl	print_yearMonthDay
 415              	.LVL44:
 125:ds1307.c      ****     LCD_PutChar('/');
 416              		.loc 1 125 0
 417 0044 2F20     		movs	r0, #47
 418 0046 FFF7FEFF 		bl	LCD_PutChar
 419              	.LVL45:
 126:ds1307.c      ****     print_yearMonthDay(Table[5]); //month
 420              		.loc 1 126 0
 421 004a 6079     		ldrb	r0, [r4, #5]
 422 004c FFF7FEFF 		bl	print_yearMonthDay
 423              	.LVL46:
 127:ds1307.c      ****     LCD_PutChar('/');
 424              		.loc 1 127 0
 425 0050 2F20     		movs	r0, #47
 426 0052 FFF7FEFF 		bl	LCD_PutChar
 427              	.LVL47:
 128:ds1307.c      ****     print_yearMonthDay(Table[4]);   //day
 428              		.loc 1 128 0
 429 0056 2079     		ldrb	r0, [r4, #4]
 430 0058 FFF7FEFF 		bl	print_yearMonthDay
 431              	.LVL48:
 129:ds1307.c      ****     LCD_PutChar(' '); 
 432              		.loc 1 129 0
 433 005c 2020     		movs	r0, #32
 434 005e FFF7FEFF 		bl	LCD_PutChar
 435              	.LVL49:
 130:ds1307.c      ****     DAY_DISPLAY();
 436              		.loc 1 130 0
 437 0062 FFF7FEFF 		bl	DAY_DISPLAY
 438              	.LVL50:
ARM GAS  C:\Users\0\AppData\Local\Temp\ccjyofJG.s 			page 11


 131:ds1307.c      **** }
 439              		.loc 1 131 0
 440              		@ sp needed
 441 0066 10BD     		pop	{r4, pc}
 442              	.L26:
 443              		.align	2
 444              	.L25:
 445 0068 00000000 		.word	Table
 446 006c 24000000 		.word	.LC19
 447              		.cfi_endproc
 448              	.LFE66:
 449              		.size	DS1307_DISPLAY_LCD, .-DS1307_DISPLAY_LCD
 450              		.section	.text.SETUP_RTC,"ax",%progbits
 451              		.align	2
 452              		.global	SETUP_RTC
 453              		.code	16
 454              		.thumb_func
 455              		.type	SETUP_RTC, %function
 456              	SETUP_RTC:
 457              	.LFB67:
 132:ds1307.c      **** 
 133:ds1307.c      **** void SETUP_RTC(){
 458              		.loc 1 133 0
 459              		.cfi_startproc
 460              		@ args = 0, pretend = 0, frame = 0
 461              		@ frame_needed = 0, uses_anonymous_args = 0
 462 0000 10B5     		push	{r4, lr}
 463              		.cfi_def_cfa_offset 8
 464              		.cfi_offset 4, -8
 465              		.cfi_offset 14, -4
 134:ds1307.c      ****     uint8 result,i;
 135:ds1307.c      **** 
 136:ds1307.c      ****     Table[0]=0x01;//second
 466              		.loc 1 136 0
 467 0002 164B     		ldr	r3, .L31
 468 0004 0122     		movs	r2, #1
 469 0006 1A70     		strb	r2, [r3]
 137:ds1307.c      ****     Table[1]=0x08;//minute
 470              		.loc 1 137 0
 471 0008 0732     		adds	r2, r2, #7
 472 000a 5A70     		strb	r2, [r3, #1]
 138:ds1307.c      ****     Table[2]=0x04;//hour
 473              		.loc 1 138 0
 474 000c 043A     		subs	r2, r2, #4
 475 000e 9A70     		strb	r2, [r3, #2]
 139:ds1307.c      ****     Table[3]=0x04;//day .
 476              		.loc 1 139 0
 477 0010 DA70     		strb	r2, [r3, #3]
 140:ds1307.c      ****     Table[4]=0x18;//date
 478              		.loc 1 140 0
 479 0012 1432     		adds	r2, r2, #20
 480 0014 1A71     		strb	r2, [r3, #4]
 141:ds1307.c      ****     Table[5]=0x11;//month
 481              		.loc 1 141 0
 482 0016 073A     		subs	r2, r2, #7
 483 0018 5A71     		strb	r2, [r3, #5]
 142:ds1307.c      ****     Table[6]=0x20;//year
ARM GAS  C:\Users\0\AppData\Local\Temp\ccjyofJG.s 			page 12


 484              		.loc 1 142 0
 485 001a 0F32     		adds	r2, r2, #15
 486 001c 9A71     		strb	r2, [r3, #6]
 487              	.L28:
 143:ds1307.c      ****         
 144:ds1307.c      ****       do{
 145:ds1307.c      ****            result=I2C_I2CMasterSendStart(SlaveAddress, I2C_I2C_WRITE_XFER_MODE, 1000);
 488              		.loc 1 145 0 discriminator 1
 489 001e FA22     		movs	r2, #250
 490 0020 9200     		lsls	r2, r2, #2
 491 0022 0021     		movs	r1, #0
 492 0024 6820     		movs	r0, #104
 493 0026 FFF7FEFF 		bl	I2C_I2CMasterSendStart
 494              	.LVL51:
 495 002a C0B2     		uxtb	r0, r0
 496              	.LVL52:
 146:ds1307.c      ****       }
 147:ds1307.c      ****       while(result!=I2C_I2C_MSTR_NO_ERROR);
 497              		.loc 1 147 0 discriminator 1
 498 002c 0028     		cmp	r0, #0
 499 002e F6D1     		bne	.L28
 148:ds1307.c      ****         
 149:ds1307.c      ****       result=I2C_I2CMasterWriteByte(0x0,1000);
 500              		.loc 1 149 0
 501 0030 FA21     		movs	r1, #250
 502 0032 8900     		lsls	r1, r1, #2
 503 0034 FFF7FEFF 		bl	I2C_I2CMasterWriteByte
 504              	.LVL53:
 150:ds1307.c      ****      for(i=0;i<7;i++){
 505              		.loc 1 150 0
 506 0038 0024     		movs	r4, #0
 507 003a 07E0     		b	.L29
 508              	.LVL54:
 509              	.L30:
 151:ds1307.c      ****             result=I2C_I2CMasterWriteByte(Table[i],1000);
 510              		.loc 1 151 0 discriminator 3
 511 003c 074B     		ldr	r3, .L31
 512 003e 185D     		ldrb	r0, [r3, r4]
 513 0040 FA21     		movs	r1, #250
 514 0042 8900     		lsls	r1, r1, #2
 515 0044 FFF7FEFF 		bl	I2C_I2CMasterWriteByte
 516              	.LVL55:
 150:ds1307.c      ****      for(i=0;i<7;i++){
 517              		.loc 1 150 0 discriminator 3
 518 0048 0134     		adds	r4, r4, #1
 519              	.LVL56:
 520 004a E4B2     		uxtb	r4, r4
 521              	.LVL57:
 522              	.L29:
 150:ds1307.c      ****      for(i=0;i<7;i++){
 523              		.loc 1 150 0 is_stmt 0 discriminator 1
 524 004c 062C     		cmp	r4, #6
 525 004e F5D9     		bls	.L30
 152:ds1307.c      ****       
 153:ds1307.c      ****     }
 154:ds1307.c      ****       I2C_I2CMasterSendStop(1000);
 526              		.loc 1 154 0 is_stmt 1
ARM GAS  C:\Users\0\AppData\Local\Temp\ccjyofJG.s 			page 13


 527 0050 FA20     		movs	r0, #250
 528 0052 8000     		lsls	r0, r0, #2
 529 0054 FFF7FEFF 		bl	I2C_I2CMasterSendStop
 530              	.LVL58:
 155:ds1307.c      **** }
 531              		.loc 1 155 0
 532              		@ sp needed
 533              	.LVL59:
 534 0058 10BD     		pop	{r4, pc}
 535              	.L32:
 536 005a C046     		.align	2
 537              	.L31:
 538 005c 00000000 		.word	Table
 539              		.cfi_endproc
 540              	.LFE67:
 541              		.size	SETUP_RTC, .-SETUP_RTC
 542              		.comm	Table,7,4
 543              		.section	.rodata.str1.4,"aMS",%progbits,1
 544              		.align	2
 545              	.LC4:
 546 0000 4D4F4E00 		.ascii	"MON\000"
 547              	.LC6:
 548 0004 54554553 		.ascii	"TUES\000"
 548      00
 549 0009 000000   		.space	3
 550              	.LC8:
 551 000c 57454E00 		.ascii	"WEN\000"
 552              	.LC10:
 553 0010 54485553 		.ascii	"THUS\000"
 553      00
 554 0015 000000   		.space	3
 555              	.LC12:
 556 0018 46524900 		.ascii	"FRI\000"
 557              	.LC14:
 558 001c 53415400 		.ascii	"SAT\000"
 559              	.LC16:
 560 0020 53554E00 		.ascii	"SUN\000"
 561              	.LC19:
 562 0024 323000   		.ascii	"20\000"
 563              		.text
 564              	.Letext0:
 565              		.file 2 "c:\\program files (x86)\\cypress\\psoc creator\\4.2\\psoc creator\\import\\gnu\\arm\\5.4.
 566              		.file 3 "c:\\program files (x86)\\cypress\\psoc creator\\4.2\\psoc creator\\import\\gnu\\arm\\5.4.
 567              		.file 4 "Generated_Source\\PSoC4/cytypes.h"
 568              		.file 5 "Generated_Source\\PSoC4/RTC.h"
 569              		.file 6 "Generated_Source\\PSoC4/I2C_I2C.h"
 570              		.file 7 "Generated_Source\\PSoC4/LCD.h"