ARM GAS  C:\Users\0\AppData\Local\Temp\cc8s75af.s 			page 1


   1              		.syntax unified
   2              		.cpu cortex-m0
   3              		.fpu softvfp
   4              		.eabi_attribute 20, 1
   5              		.eabi_attribute 21, 1
   6              		.eabi_attribute 23, 3
   7              		.eabi_attribute 24, 1
   8              		.eabi_attribute 25, 1
   9              		.eabi_attribute 26, 1
  10              		.eabi_attribute 30, 1
  11              		.eabi_attribute 34, 0
  12              		.eabi_attribute 18, 4
  13              		.thumb
  14              		.syntax unified
  15              		.file	"main.c"
  16              		.text
  17              	.Ltext0:
  18              		.cfi_sections	.debug_frame
  19              		.section	.text.RX_ISR,"ax",%progbits
  20              		.align	2
  21              		.global	RX_ISR
  22              		.code	16
  23              		.thumb_func
  24              		.type	RX_ISR, %function
  25              	RX_ISR:
  26              	.LFB61:
  27              		.file 1 "main.c"
   1:main.c        **** /* ========================================
   2:main.c        ****  *
   3:main.c        ****  * Copyright YOUR COMPANY, THE YEAR
   4:main.c        ****  * All Rights Reserved
   5:main.c        ****  * UNPUBLISHED, LICENSED SOFTWARE.
   6:main.c        ****  *
   7:main.c        ****  * CONFIDENTIAL AND PROPRIETARY INFORMATION
   8:main.c        ****  * WHICH IS THE PROPERTY OF your company.
   9:main.c        ****  *
  10:main.c        ****  * ========================================
  11:main.c        **** */
  12:main.c        **** #include "project.h"
  13:main.c        **** #include "main.h"
  14:main.c        **** #include "stdio.h"
  15:main.c        **** #include "stdlib.h"
  16:main.c        **** #include "ds1307.h"
  17:main.c        **** 
  18:main.c        **** const uint8 sevenSeg[12] = {0xFC, 0x60, 0xDA, 0xF2, 0x66, 0xB6, 0xBE, 0xE0, 0xFE, 0xF6, 0xC6, 0x9C}
  19:main.c        **** /*thousand = count/1000;
  20:main.c        ****   hundred = (count%1000)/100;
  21:main.c        ****   dozen = (count%100)/10;
  22:main.c        ****   unit = count%10;*/
  23:main.c        **** //uint16 msTicks = 0;
  24:main.c        **** uint16_t vr_timer_7seg = 0;
  25:main.c        **** uint16_t vr_timer_temp = 0;
  26:main.c        **** uint16_t vr_timer_count = 0;
  27:main.c        **** int value;
  28:main.c        **** int temp;
  29:main.c        **** int vrCnv;
  30:main.c        **** uint8_t flag_timer = 0;
ARM GAS  C:\Users\0\AppData\Local\Temp\cc8s75af.s 			page 2


  31:main.c        **** uint8_t flag_count = 0;
  32:main.c        **** 
  33:main.c        **** uint8_t vr_led_7_1;
  34:main.c        **** uint8_t vr_led_7_2;
  35:main.c        **** uint8_t vr_led_7_3;
  36:main.c        **** uint8_t vr_led_7_4;
  37:main.c        **** 
  38:main.c        **** extern uint8 Table[];
  39:main.c        **** //quandh
  40:main.c        **** CY_ISR(MY_ISR) {// interrupt timer for 7seg
  41:main.c        ****     vr_timer_7seg++;
  42:main.c        ****     vr_timer_temp++;
  43:main.c        ****     vr_timer_count++;
  44:main.c        ****     if(vr_timer_count == 100){
  45:main.c        ****         flag_count = 1;
  46:main.c        ****         vr_timer_count = 0;
  47:main.c        ****     }
  48:main.c        ****     if(vr_timer_temp == 5000){
  49:main.c        ****         flag_timer ++;
  50:main.c        ****         vr_timer_temp = 0;
  51:main.c        ****     }
  52:main.c        ****     if(vr_timer_7seg == 1){
  53:main.c        ****         led_scan(vr_led_7_1, 0);
  54:main.c        ****     }
  55:main.c        ****     if(vr_timer_7seg == 2){
  56:main.c        ****         led_scan(vr_led_7_2, 1);
  57:main.c        ****     }
  58:main.c        ****     if(vr_timer_7seg == 3){
  59:main.c        ****         led_scan(vr_led_7_3, 2);
  60:main.c        ****     }
  61:main.c        ****     if(vr_timer_7seg == 4){
  62:main.c        ****         led_scan(vr_led_7_4, 3); 
  63:main.c        ****         vr_timer_7seg = 0;
  64:main.c        ****     }
  65:main.c        ****     
  66:main.c        ****     Timer_1_ClearInterrupt(Timer_1_INTR_MASK_TC);
  67:main.c        **** }
  68:main.c        **** 
  69:main.c        **** char Data;
  70:main.c        **** uint8 indexBuffer;
  71:main.c        **** char Buffer[50];
  72:main.c        **** uint8_t vrUart;
  73:main.c        **** uint8_t flag_uart = 0;
  74:main.c        **** 
  75:main.c        **** CY_ISR(RX_ISR){
  28              		.loc 1 75 0
  29              		.cfi_startproc
  30              		@ args = 0, pretend = 0, frame = 0
  31              		@ frame_needed = 0, uses_anonymous_args = 0
  32 0000 10B5     		push	{r4, lr}
  33              		.cfi_def_cfa_offset 8
  34              		.cfi_offset 4, -8
  35              		.cfi_offset 14, -4
  76:main.c        ****     uint8 sub;
  77:main.c        ****     Data = UART_GetChar();
  36              		.loc 1 77 0
  37 0002 FFF7FEFF 		bl	UART_GetChar
ARM GAS  C:\Users\0\AppData\Local\Temp\cc8s75af.s 			page 3


  38              	.LVL0:
  39 0006 074B     		ldr	r3, .L3
  40 0008 1870     		strb	r0, [r3]
  78:main.c        ****     Buffer[indexBuffer] = Data;
  41              		.loc 1 78 0
  42 000a 074A     		ldr	r2, .L3+4
  43 000c 1378     		ldrb	r3, [r2]
  44 000e 0749     		ldr	r1, .L3+8
  45 0010 C854     		strb	r0, [r1, r3]
  79:main.c        ****     indexBuffer++;
  46              		.loc 1 79 0
  47 0012 0133     		adds	r3, r3, #1
  48 0014 1370     		strb	r3, [r2]
  80:main.c        ****     if (Data == '\r'){
  49              		.loc 1 80 0
  50 0016 0D28     		cmp	r0, #13
  51 0018 02D1     		bne	.L1
  81:main.c        ****         flag_uart = 1;
  52              		.loc 1 81 0
  53 001a 0122     		movs	r2, #1
  54 001c 044B     		ldr	r3, .L3+12
  55 001e 1A70     		strb	r2, [r3]
  56              	.L1:
  82:main.c        ****     }
  83:main.c        **** }
  57              		.loc 1 83 0
  58              		@ sp needed
  59 0020 10BD     		pop	{r4, pc}
  60              	.L4:
  61 0022 C046     		.align	2
  62              	.L3:
  63 0024 00000000 		.word	Data
  64 0028 00000000 		.word	indexBuffer
  65 002c 00000000 		.word	Buffer
  66 0030 00000000 		.word	.LANCHOR0
  67              		.cfi_endproc
  68              	.LFE61:
  69              		.size	RX_ISR, .-RX_ISR
  70              		.section	.text.led_scan,"ax",%progbits
  71              		.align	2
  72              		.global	led_scan
  73              		.code	16
  74              		.thumb_func
  75              		.type	led_scan, %function
  76              	led_scan:
  77              	.LFB62:
  84:main.c        **** 
  85:main.c        **** void led_scan(uint8_t number, uint8_t pos) // func scan led
  86:main.c        **** {
  78              		.loc 1 86 0
  79              		.cfi_startproc
  80              		@ args = 0, pretend = 0, frame = 0
  81              		@ frame_needed = 0, uses_anonymous_args = 0
  82              	.LVL1:
  83 0000 10B5     		push	{r4, lr}
  84              		.cfi_def_cfa_offset 8
  85              		.cfi_offset 4, -8
ARM GAS  C:\Users\0\AppData\Local\Temp\cc8s75af.s 			page 4


  86              		.cfi_offset 14, -4
  87 0002 0400     		movs	r4, r0
  87:main.c        ****     Pin_Ctrl_Write(~(1<<pos));
  88              		.loc 1 87 0
  89 0004 0120     		movs	r0, #1
  90              	.LVL2:
  91 0006 8840     		lsls	r0, r0, r1
  92 0008 C043     		mvns	r0, r0
  93 000a C0B2     		uxtb	r0, r0
  94 000c FFF7FEFF 		bl	Pin_Ctrl_Write
  95              	.LVL3:
  88:main.c        ****     Pin_7Seg_Write(sevenSeg[number]);
  96              		.loc 1 88 0
  97 0010 024B     		ldr	r3, .L6
  98 0012 185D     		ldrb	r0, [r3, r4]
  99 0014 FFF7FEFF 		bl	Pin_7Seg_Write
 100              	.LVL4:
  89:main.c        **** 
  90:main.c        **** }
 101              		.loc 1 90 0
 102              		@ sp needed
 103 0018 10BD     		pop	{r4, pc}
 104              	.L7:
 105 001a C046     		.align	2
 106              	.L6:
 107 001c 00000000 		.word	.LANCHOR1
 108              		.cfi_endproc
 109              	.LFE62:
 110              		.size	led_scan, .-led_scan
 111              		.section	.text.MY_ISR,"ax",%progbits
 112              		.align	2
 113              		.global	MY_ISR
 114              		.code	16
 115              		.thumb_func
 116              		.type	MY_ISR, %function
 117              	MY_ISR:
 118              	.LFB60:
  40:main.c        ****     vr_timer_7seg++;
 119              		.loc 1 40 0
 120              		.cfi_startproc
 121              		@ args = 0, pretend = 0, frame = 0
 122              		@ frame_needed = 0, uses_anonymous_args = 0
 123 0000 10B5     		push	{r4, lr}
 124              		.cfi_def_cfa_offset 8
 125              		.cfi_offset 4, -8
 126              		.cfi_offset 14, -4
  41:main.c        ****     vr_timer_temp++;
 127              		.loc 1 41 0
 128 0002 2348     		ldr	r0, .L15
 129 0004 4388     		ldrh	r3, [r0, #2]
 130 0006 0133     		adds	r3, r3, #1
 131 0008 9BB2     		uxth	r3, r3
 132 000a 4380     		strh	r3, [r0, #2]
  42:main.c        ****     vr_timer_count++;
 133              		.loc 1 42 0
 134 000c 8288     		ldrh	r2, [r0, #4]
 135 000e 0132     		adds	r2, r2, #1
ARM GAS  C:\Users\0\AppData\Local\Temp\cc8s75af.s 			page 5


 136 0010 92B2     		uxth	r2, r2
 137 0012 8280     		strh	r2, [r0, #4]
  43:main.c        ****     if(vr_timer_count == 100){
 138              		.loc 1 43 0
 139 0014 C188     		ldrh	r1, [r0, #6]
 140 0016 0131     		adds	r1, r1, #1
 141 0018 89B2     		uxth	r1, r1
 142 001a C180     		strh	r1, [r0, #6]
  44:main.c        ****         flag_count = 1;
 143              		.loc 1 44 0
 144 001c 6429     		cmp	r1, #100
 145 001e 04D1     		bne	.L9
  45:main.c        ****         vr_timer_count = 0;
 146              		.loc 1 45 0
 147 0020 0100     		movs	r1, r0
 148 0022 0120     		movs	r0, #1
 149 0024 0872     		strb	r0, [r1, #8]
  46:main.c        ****     }
 150              		.loc 1 46 0
 151 0026 0020     		movs	r0, #0
 152 0028 C880     		strh	r0, [r1, #6]
 153              	.L9:
  48:main.c        ****         flag_timer ++;
 154              		.loc 1 48 0
 155 002a 1A49     		ldr	r1, .L15+4
 156 002c 8A42     		cmp	r2, r1
 157 002e 05D1     		bne	.L10
  49:main.c        ****         vr_timer_temp = 0;
 158              		.loc 1 49 0
 159 0030 174A     		ldr	r2, .L15
 160 0032 517A     		ldrb	r1, [r2, #9]
 161 0034 0131     		adds	r1, r1, #1
 162 0036 5172     		strb	r1, [r2, #9]
  50:main.c        ****     }
 163              		.loc 1 50 0
 164 0038 0021     		movs	r1, #0
 165 003a 9180     		strh	r1, [r2, #4]
 166              	.L10:
  52:main.c        ****         led_scan(vr_led_7_1, 0);
 167              		.loc 1 52 0
 168 003c 012B     		cmp	r3, #1
 169 003e 04D1     		bne	.L11
  53:main.c        ****     }
 170              		.loc 1 53 0
 171 0040 154B     		ldr	r3, .L15+8
 172 0042 1878     		ldrb	r0, [r3]
 173 0044 0021     		movs	r1, #0
 174 0046 FFF7FEFF 		bl	led_scan
 175              	.LVL5:
 176              	.L11:
  55:main.c        ****         led_scan(vr_led_7_2, 1);
 177              		.loc 1 55 0
 178 004a 114B     		ldr	r3, .L15
 179 004c 5B88     		ldrh	r3, [r3, #2]
 180 004e 022B     		cmp	r3, #2
 181 0050 04D1     		bne	.L12
  56:main.c        ****     }
ARM GAS  C:\Users\0\AppData\Local\Temp\cc8s75af.s 			page 6


 182              		.loc 1 56 0
 183 0052 124B     		ldr	r3, .L15+12
 184 0054 1878     		ldrb	r0, [r3]
 185 0056 0121     		movs	r1, #1
 186 0058 FFF7FEFF 		bl	led_scan
 187              	.LVL6:
 188              	.L12:
  58:main.c        ****         led_scan(vr_led_7_3, 2);
 189              		.loc 1 58 0
 190 005c 0C4B     		ldr	r3, .L15
 191 005e 5B88     		ldrh	r3, [r3, #2]
 192 0060 032B     		cmp	r3, #3
 193 0062 04D1     		bne	.L13
  59:main.c        ****     }
 194              		.loc 1 59 0
 195 0064 0E4B     		ldr	r3, .L15+16
 196 0066 1878     		ldrb	r0, [r3]
 197 0068 0221     		movs	r1, #2
 198 006a FFF7FEFF 		bl	led_scan
 199              	.LVL7:
 200              	.L13:
  61:main.c        ****         led_scan(vr_led_7_4, 3); 
 201              		.loc 1 61 0
 202 006e 084B     		ldr	r3, .L15
 203 0070 5B88     		ldrh	r3, [r3, #2]
 204 0072 042B     		cmp	r3, #4
 205 0074 07D1     		bne	.L14
  62:main.c        ****         vr_timer_7seg = 0;
 206              		.loc 1 62 0
 207 0076 0B4B     		ldr	r3, .L15+20
 208 0078 1878     		ldrb	r0, [r3]
 209 007a 0321     		movs	r1, #3
 210 007c FFF7FEFF 		bl	led_scan
 211              	.LVL8:
  63:main.c        ****     }
 212              		.loc 1 63 0
 213 0080 0022     		movs	r2, #0
 214 0082 034B     		ldr	r3, .L15
 215 0084 5A80     		strh	r2, [r3, #2]
 216              	.L14:
  66:main.c        **** }
 217              		.loc 1 66 0
 218 0086 0120     		movs	r0, #1
 219 0088 FFF7FEFF 		bl	Timer_1_ClearInterrupt
 220              	.LVL9:
  67:main.c        **** 
 221              		.loc 1 67 0
 222              		@ sp needed
 223 008c 10BD     		pop	{r4, pc}
 224              	.L16:
 225 008e C046     		.align	2
 226              	.L15:
 227 0090 00000000 		.word	.LANCHOR0
 228 0094 88130000 		.word	5000
 229 0098 00000000 		.word	vr_led_7_1
 230 009c 00000000 		.word	vr_led_7_2
 231 00a0 00000000 		.word	vr_led_7_3
ARM GAS  C:\Users\0\AppData\Local\Temp\cc8s75af.s 			page 7


 232 00a4 00000000 		.word	vr_led_7_4
 233              		.cfi_endproc
 234              	.LFE60:
 235              		.size	MY_ISR, .-MY_ISR
 236              		.global	__aeabi_uidiv
 237              		.global	__aeabi_uidivmod
 238              		.section	.text.convertDecToBCD,"ax",%progbits
 239              		.align	2
 240              		.global	convertDecToBCD
 241              		.code	16
 242              		.thumb_func
 243              		.type	convertDecToBCD, %function
 244              	convertDecToBCD:
 245              	.LFB63:
  91:main.c        **** 
  92:main.c        **** /*convert Decimal to BCD*/
  93:main.c        **** uint8_t convertDecToBCD(uint8_t vrDec) {
 246              		.loc 1 93 0
 247              		.cfi_startproc
 248              		@ args = 0, pretend = 0, frame = 0
 249              		@ frame_needed = 0, uses_anonymous_args = 0
 250              	.LVL10:
 251 0000 70B5     		push	{r4, r5, r6, lr}
 252              		.cfi_def_cfa_offset 16
 253              		.cfi_offset 4, -16
 254              		.cfi_offset 5, -12
 255              		.cfi_offset 6, -8
 256              		.cfi_offset 14, -4
 257 0002 0500     		movs	r5, r0
  94:main.c        **** 	uint8_t vrBCD;
  95:main.c        **** 	vrBCD = 0xF0 & ((vrDec/10) << 4);
 258              		.loc 1 95 0
 259 0004 0A21     		movs	r1, #10
 260 0006 FFF7FEFF 		bl	__aeabi_uidiv
 261              	.LVL11:
 262 000a C0B2     		uxtb	r0, r0
 263 000c 0001     		lsls	r0, r0, #4
 264 000e C4B2     		uxtb	r4, r0
 265              	.LVL12:
  96:main.c        **** 	vrBCD |= vrDec%10;
 266              		.loc 1 96 0
 267 0010 0A21     		movs	r1, #10
 268 0012 2800     		movs	r0, r5
 269 0014 FFF7FEFF 		bl	__aeabi_uidivmod
 270              	.LVL13:
 271 0018 0C43     		orrs	r4, r1
 272              	.LVL14:
 273 001a E0B2     		uxtb	r0, r4
 274              	.LVL15:
  97:main.c        **** 	return vrBCD;
  98:main.c        **** }
 275              		.loc 1 98 0
 276              		@ sp needed
 277 001c 70BD     		pop	{r4, r5, r6, pc}
 278              		.cfi_endproc
 279              	.LFE63:
 280              		.size	convertDecToBCD, .-convertDecToBCD
ARM GAS  C:\Users\0\AppData\Local\Temp\cc8s75af.s 			page 8


 281              		.global	__aeabi_idiv
 282 001e C046     		.section	.text.main,"ax",%progbits
 283              		.align	2
 284              		.global	main
 285              		.code	16
 286              		.thumb_func
 287              		.type	main, %function
 288              	main:
 289              	.LFB64:
  99:main.c        **** 
 100:main.c        **** int main(void)
 101:main.c        **** {
 290              		.loc 1 101 0
 291              		.cfi_startproc
 292              		@ Volatile: function does not return.
 293              		@ args = 0, pretend = 0, frame = 0
 294              		@ frame_needed = 0, uses_anonymous_args = 0
 295 0000 70B5     		push	{r4, r5, r6, lr}
 296              		.cfi_def_cfa_offset 16
 297              		.cfi_offset 4, -16
 298              		.cfi_offset 5, -12
 299              		.cfi_offset 6, -8
 300              		.cfi_offset 14, -4
 102:main.c        ****     Timer_1_Start(); // Configure and enable timer
 301              		.loc 1 102 0
 302 0002 FFF7FEFF 		bl	Timer_1_Start
 303              	.LVL16:
 103:main.c        ****     isr_1_StartEx(MY_ISR); // setup timer interrupt sub-routine
 304              		.loc 1 103 0
 305 0006 4D48     		ldr	r0, .L27
 306 0008 FFF7FEFF 		bl	isr_1_StartEx
 307              	.LVL17:
 104:main.c        ****     isr_rx_StartEx(RX_ISR);
 308              		.loc 1 104 0
 309 000c 4C48     		ldr	r0, .L27+4
 310 000e FFF7FEFF 		bl	isr_rx_StartEx
 311              	.LVL18:
 105:main.c        ****     LCD_Start();
 312              		.loc 1 105 0
 313 0012 FFF7FEFF 		bl	LCD_Start
 314              	.LVL19:
 106:main.c        ****     LCD_ClearDisplay();  
 315              		.loc 1 106 0
 316 0016 0120     		movs	r0, #1
 317 0018 FFF7FEFF 		bl	LCD_WriteControl
 318              	.LVL20:
 107:main.c        ****     ADC_Start();
 319              		.loc 1 107 0
 320 001c FFF7FEFF 		bl	ADC_Start
 321              	.LVL21:
 108:main.c        ****     I2C_Start();
 322              		.loc 1 108 0
 323 0020 FFF7FEFF 		bl	I2C_Start
 324              	.LVL22:
 109:main.c        ****     SETUP_RTC();
 325              		.loc 1 109 0
 326 0024 FFF7FEFF 		bl	SETUP_RTC
ARM GAS  C:\Users\0\AppData\Local\Temp\cc8s75af.s 			page 9


 327              	.LVL23:
 110:main.c        ****     ADC_StartConvert();
 328              		.loc 1 110 0
 329 0028 FFF7FEFF 		bl	ADC_StartConvert
 330              	.LVL24:
 111:main.c        ****     UART_Start();
 331              		.loc 1 111 0
 332 002c FFF7FEFF 		bl	UART_Start
 333              	.LVL25:
 112:main.c        ****     
 113:main.c        ****     CyGlobalIntEnable; /* Enable global interrupts. */
 334              		.loc 1 113 0
 335              		.syntax divided
 336              	@ 113 "main.c" 1
 337 0030 62B6     		CPSIE   i
 338              	@ 0 "" 2
 114:main.c        ****        
 115:main.c        ****     vr_led_7_1 = Table[1]&0x0F;
 339              		.loc 1 115 0
 340              		.thumb
 341              		.syntax unified
 342 0032 4449     		ldr	r1, .L27+8
 343 0034 4B78     		ldrb	r3, [r1, #1]
 344 0036 0F22     		movs	r2, #15
 345 0038 1400     		movs	r4, r2
 346 003a 1C40     		ands	r4, r3
 347 003c 4248     		ldr	r0, .L27+12
 348 003e 0470     		strb	r4, [r0]
 116:main.c        ****     vr_led_7_2 = Table[1]>>4;
 349              		.loc 1 116 0
 350 0040 1B09     		lsrs	r3, r3, #4
 351 0042 4248     		ldr	r0, .L27+16
 352 0044 0370     		strb	r3, [r0]
 117:main.c        ****     vr_led_7_3 = Table[2]&0X0F;
 353              		.loc 1 117 0
 354 0046 8B78     		ldrb	r3, [r1, #2]
 355 0048 1A40     		ands	r2, r3
 356 004a 4149     		ldr	r1, .L27+20
 357 004c 0A70     		strb	r2, [r1]
 118:main.c        ****     vr_led_7_4 = (Table[2]>>4)&0x03;
 358              		.loc 1 118 0
 359 004e 1B09     		lsrs	r3, r3, #4
 360 0050 0322     		movs	r2, #3
 361 0052 1340     		ands	r3, r2
 362 0054 3F4A     		ldr	r2, .L27+24
 363 0056 1370     		strb	r3, [r2]
 364              	.L24:
 119:main.c        **** 
 120:main.c        ****     for(;;)
 121:main.c        ****     {
 122:main.c        ****         /* Place your application code here. */
 123:main.c        ****         if(flag_count == 1){
 365              		.loc 1 123 0
 366 0058 3F4B     		ldr	r3, .L27+28
 367 005a 1B7A     		ldrb	r3, [r3, #8]
 368 005c 012B     		cmp	r3, #1
 369 005e 06D1     		bne	.L20
ARM GAS  C:\Users\0\AppData\Local\Temp\cc8s75af.s 			page 10


 124:main.c        ****             RTC_I2C();
 370              		.loc 1 124 0
 371 0060 FFF7FEFF 		bl	RTC_I2C
 372              	.LVL26:
 125:main.c        ****             DS1307_DISPLAY_LCD();
 373              		.loc 1 125 0
 374 0064 FFF7FEFF 		bl	DS1307_DISPLAY_LCD
 375              	.LVL27:
 126:main.c        ****             flag_count = 0;
 376              		.loc 1 126 0
 377 0068 0022     		movs	r2, #0
 378 006a 3B4B     		ldr	r3, .L27+28
 379 006c 1A72     		strb	r2, [r3, #8]
 380              	.L20:
 127:main.c        ****         }
 128:main.c        ****               
 129:main.c        ****         if(ADC_IsEndConversion(ADC_RETURN_STATUS)){
 381              		.loc 1 129 0
 382 006e 0120     		movs	r0, #1
 383 0070 FFF7FEFF 		bl	ADC_IsEndConversion
 384              	.LVL28:
 385 0074 0028     		cmp	r0, #0
 386 0076 08D0     		beq	.L21
 130:main.c        ****         value = ADC_CountsTo_mVolts(0,ADC_GetResult16(0));
 387              		.loc 1 130 0
 388 0078 0020     		movs	r0, #0
 389 007a FFF7FEFF 		bl	ADC_GetResult16
 390              	.LVL29:
 391 007e 0100     		movs	r1, r0
 392 0080 0020     		movs	r0, #0
 393 0082 FFF7FEFF 		bl	ADC_CountsTo_mVolts
 394              	.LVL30:
 395 0086 354B     		ldr	r3, .L27+32
 396 0088 1860     		str	r0, [r3]
 397              	.L21:
 131:main.c        ****         }
 132:main.c        ****         temp = value/10;
 398              		.loc 1 132 0
 399 008a 344B     		ldr	r3, .L27+32
 400 008c 1868     		ldr	r0, [r3]
 401 008e 0A21     		movs	r1, #10
 402 0090 FFF7FEFF 		bl	__aeabi_idiv
 403              	.LVL31:
 404 0094 324B     		ldr	r3, .L27+36
 405 0096 1860     		str	r0, [r3]
 133:main.c        ****         vrCnv = convertDecToBCD(temp);
 406              		.loc 1 133 0
 407 0098 C0B2     		uxtb	r0, r0
 408 009a FFF7FEFF 		bl	convertDecToBCD
 409              	.LVL32:
 410 009e 314B     		ldr	r3, .L27+40
 411 00a0 1860     		str	r0, [r3]
 134:main.c        ****         if(flag_timer == 1){
 412              		.loc 1 134 0
 413 00a2 2D4B     		ldr	r3, .L27+28
 414 00a4 5B7A     		ldrb	r3, [r3, #9]
 415 00a6 012B     		cmp	r3, #1
ARM GAS  C:\Users\0\AppData\Local\Temp\cc8s75af.s 			page 11


 416 00a8 0CD1     		bne	.L22
 135:main.c        ****             vr_led_7_1 = 11;
 417              		.loc 1 135 0
 418 00aa 0B21     		movs	r1, #11
 419 00ac 264A     		ldr	r2, .L27+12
 420 00ae 1170     		strb	r1, [r2]
 136:main.c        ****             vr_led_7_2 = 10;
 421              		.loc 1 136 0
 422 00b0 0139     		subs	r1, r1, #1
 423 00b2 264A     		ldr	r2, .L27+16
 424 00b4 1170     		strb	r1, [r2]
 137:main.c        ****             vr_led_7_3 = vrCnv&0x0F;
 425              		.loc 1 137 0
 426 00b6 0F22     		movs	r2, #15
 427 00b8 0240     		ands	r2, r0
 428 00ba 2549     		ldr	r1, .L27+20
 429 00bc 0A70     		strb	r2, [r1]
 138:main.c        ****             vr_led_7_4 = vrCnv>>4;
 430              		.loc 1 138 0
 431 00be 0011     		asrs	r0, r0, #4
 432 00c0 244A     		ldr	r2, .L27+24
 433 00c2 1070     		strb	r0, [r2]
 434              	.L22:
 139:main.c        ****         }
 140:main.c        ****          if(flag_timer == 2){
 435              		.loc 1 140 0
 436 00c4 022B     		cmp	r3, #2
 437 00c6 15D1     		bne	.L23
 141:main.c        ****             vr_led_7_1 = Table[1]&0x0F;
 438              		.loc 1 141 0
 439 00c8 1E49     		ldr	r1, .L27+8
 440 00ca 4B78     		ldrb	r3, [r1, #1]
 441 00cc 0F22     		movs	r2, #15
 442 00ce 1400     		movs	r4, r2
 443 00d0 1C40     		ands	r4, r3
 444 00d2 1D48     		ldr	r0, .L27+12
 445 00d4 0470     		strb	r4, [r0]
 142:main.c        ****             vr_led_7_2 = Table[1]>>4;
 446              		.loc 1 142 0
 447 00d6 1B09     		lsrs	r3, r3, #4
 448 00d8 1C48     		ldr	r0, .L27+16
 449 00da 0370     		strb	r3, [r0]
 143:main.c        ****             vr_led_7_3 = Table[2]&0X0F;
 450              		.loc 1 143 0
 451 00dc 8B78     		ldrb	r3, [r1, #2]
 452 00de 1A40     		ands	r2, r3
 453 00e0 1B49     		ldr	r1, .L27+20
 454 00e2 0A70     		strb	r2, [r1]
 144:main.c        ****             vr_led_7_4 = (Table[2]>>4)&0x03; 
 455              		.loc 1 144 0
 456 00e4 1B09     		lsrs	r3, r3, #4
 457 00e6 0322     		movs	r2, #3
 458 00e8 1340     		ands	r3, r2
 459 00ea 1A4A     		ldr	r2, .L27+24
 460 00ec 1370     		strb	r3, [r2]
 145:main.c        ****             flag_timer = 0;
 461              		.loc 1 145 0
ARM GAS  C:\Users\0\AppData\Local\Temp\cc8s75af.s 			page 12


 462 00ee 0022     		movs	r2, #0
 463 00f0 194B     		ldr	r3, .L27+28
 464 00f2 5A72     		strb	r2, [r3, #9]
 465              	.L23:
 146:main.c        ****         }
 147:main.c        ****         
 148:main.c        ****         if(flag_uart == 1){
 466              		.loc 1 148 0
 467 00f4 184B     		ldr	r3, .L27+28
 468 00f6 1B78     		ldrb	r3, [r3]
 469 00f8 012B     		cmp	r3, #1
 470 00fa ADD1     		bne	.L24
 149:main.c        ****             indexBuffer = 0;
 471              		.loc 1 149 0
 472 00fc 1A4D     		ldr	r5, .L27+44
 473 00fe 0024     		movs	r4, #0
 474 0100 2C70     		strb	r4, [r5]
 150:main.c        ****             vrUart = atoi(Buffer);
 475              		.loc 1 150 0
 476 0102 1A48     		ldr	r0, .L27+48
 477 0104 FFF7FEFF 		bl	atoi
 478              	.LVL33:
 479 0108 C0B2     		uxtb	r0, r0
 480 010a 194B     		ldr	r3, .L27+52
 481 010c 1870     		strb	r0, [r3]
 151:main.c        ****             //UART_PutString(Buffer);
 152:main.c        ****             flag_uart = 0;
 482              		.loc 1 152 0
 483 010e 124B     		ldr	r3, .L27+28
 484 0110 1C70     		strb	r4, [r3]
 153:main.c        ****             indexBuffer = 0;
 485              		.loc 1 153 0
 486 0112 2C70     		strb	r4, [r5]
 154:main.c        ****             if(vrUart < temp){
 487              		.loc 1 154 0
 488 0114 124B     		ldr	r3, .L27+36
 489 0116 1B68     		ldr	r3, [r3]
 490 0118 9842     		cmp	r0, r3
 491 011a 07DA     		bge	.L25
 155:main.c        ****                 UART_PutString("10khz");
 492              		.loc 1 155 0
 493 011c 1548     		ldr	r0, .L27+56
 494 011e FFF7FEFF 		bl	UART_PutString
 495              	.LVL34:
 156:main.c        ****                 PWM_1_Start();
 496              		.loc 1 156 0
 497 0122 FFF7FEFF 		bl	PWM_1_Start
 498              	.LVL35:
 157:main.c        ****                 PWM_2_Stop();
 499              		.loc 1 157 0
 500 0126 FFF7FEFF 		bl	PWM_2_Stop
 501              	.LVL36:
 502 012a 95E7     		b	.L24
 503              	.L25:
 158:main.c        ****              }
 159:main.c        ****              else{
 160:main.c        ****                 UART_PutString("50khz");
ARM GAS  C:\Users\0\AppData\Local\Temp\cc8s75af.s 			page 13


 504              		.loc 1 160 0
 505 012c 1248     		ldr	r0, .L27+60
 506 012e FFF7FEFF 		bl	UART_PutString
 507              	.LVL37:
 161:main.c        ****                 PWM_2_Start();
 508              		.loc 1 161 0
 509 0132 FFF7FEFF 		bl	PWM_2_Start
 510              	.LVL38:
 162:main.c        ****                 PWM_1_Stop();
 511              		.loc 1 162 0
 512 0136 FFF7FEFF 		bl	PWM_1_Stop
 513              	.LVL39:
 514 013a 8DE7     		b	.L24
 515              	.L28:
 516              		.align	2
 517              	.L27:
 518 013c 00000000 		.word	MY_ISR
 519 0140 00000000 		.word	RX_ISR
 520 0144 00000000 		.word	Table
 521 0148 00000000 		.word	vr_led_7_1
 522 014c 00000000 		.word	vr_led_7_2
 523 0150 00000000 		.word	vr_led_7_3
 524 0154 00000000 		.word	vr_led_7_4
 525 0158 00000000 		.word	.LANCHOR0
 526 015c 00000000 		.word	value
 527 0160 00000000 		.word	temp
 528 0164 00000000 		.word	vrCnv
 529 0168 00000000 		.word	indexBuffer
 530 016c 00000000 		.word	Buffer
 531 0170 00000000 		.word	vrUart
 532 0174 00000000 		.word	.LC24
 533 0178 08000000 		.word	.LC26
 534              		.cfi_endproc
 535              	.LFE64:
 536              		.size	main, .-main
 537              		.global	flag_uart
 538              		.comm	vrUart,1,1
 539              		.comm	Buffer,50,4
 540              		.comm	indexBuffer,1,1
 541              		.comm	Data,1,1
 542              		.comm	vr_led_7_4,1,1
 543              		.comm	vr_led_7_3,1,1
 544              		.comm	vr_led_7_2,1,1
 545              		.comm	vr_led_7_1,1,1
 546              		.global	flag_count
 547              		.global	flag_timer
 548              		.comm	vrCnv,4,4
 549              		.comm	temp,4,4
 550              		.comm	value,4,4
 551              		.global	vr_timer_count
 552              		.global	vr_timer_temp
 553              		.global	vr_timer_7seg
 554              		.global	sevenSeg
 555              		.section	.rodata
 556              		.align	2
 557              		.set	.LANCHOR1,. + 0
 558              		.type	sevenSeg, %object
ARM GAS  C:\Users\0\AppData\Local\Temp\cc8s75af.s 			page 14


 559              		.size	sevenSeg, 12
 560              	sevenSeg:
 561 0000 FC       		.byte	-4
 562 0001 60       		.byte	96
 563 0002 DA       		.byte	-38
 564 0003 F2       		.byte	-14
 565 0004 66       		.byte	102
 566 0005 B6       		.byte	-74
 567 0006 BE       		.byte	-66
 568 0007 E0       		.byte	-32
 569 0008 FE       		.byte	-2
 570 0009 F6       		.byte	-10
 571 000a C6       		.byte	-58
 572 000b 9C       		.byte	-100
 573              		.section	.rodata.str1.4,"aMS",%progbits,1
 574              		.align	2
 575              	.LC24:
 576 0000 31306B68 		.ascii	"10khz\000"
 576      7A00
 577 0006 0000     		.space	2
 578              	.LC26:
 579 0008 35306B68 		.ascii	"50khz\000"
 579      7A00
 580              		.bss
 581              		.align	1
 582              		.set	.LANCHOR0,. + 0
 583              		.type	flag_uart, %object
 584              		.size	flag_uart, 1
 585              	flag_uart:
 586 0000 00       		.space	1
 587 0001 00       		.space	1
 588              		.type	vr_timer_7seg, %object
 589              		.size	vr_timer_7seg, 2
 590              	vr_timer_7seg:
 591 0002 0000     		.space	2
 592              		.type	vr_timer_temp, %object
 593              		.size	vr_timer_temp, 2
 594              	vr_timer_temp:
 595 0004 0000     		.space	2
 596              		.type	vr_timer_count, %object
 597              		.size	vr_timer_count, 2
 598              	vr_timer_count:
 599 0006 0000     		.space	2
 600              		.type	flag_count, %object
 601              		.size	flag_count, 1
 602              	flag_count:
 603 0008 00       		.space	1
 604              		.type	flag_timer, %object
 605              		.size	flag_timer, 1
 606              	flag_timer:
 607 0009 00       		.space	1
 608              		.text
 609              	.Letext0:
 610              		.file 2 "c:\\program files (x86)\\cypress\\psoc creator\\4.2\\psoc creator\\import\\gnu\\arm\\5.4.
 611              		.file 3 "c:\\program files (x86)\\cypress\\psoc creator\\4.2\\psoc creator\\import\\gnu\\arm\\5.4.
 612              		.file 4 "Generated_Source\\PSoC4/cytypes.h"
 613              		.file 5 "Generated_Source\\PSoC4/RTC.h"
ARM GAS  C:\Users\0\AppData\Local\Temp\cc8s75af.s 			page 15


 614              		.file 6 "Generated_Source\\PSoC4/UART.h"
 615              		.file 7 "Generated_Source\\PSoC4/Pin_Ctrl.h"
 616              		.file 8 "Generated_Source\\PSoC4/Pin_7Seg.h"
 617              		.file 9 "Generated_Source\\PSoC4/Timer_1.h"
 618              		.file 10 "Generated_Source\\PSoC4/isr_1.h"
 619              		.file 11 "Generated_Source\\PSoC4/isr_rx.h"
 620              		.file 12 "Generated_Source\\PSoC4/LCD.h"
 621              		.file 13 "Generated_Source\\PSoC4/ADC.h"
 622              		.file 14 "Generated_Source\\PSoC4/I2C.h"
 623              		.file 15 "ds1307.h"
 624              		.file 16 "c:\\program files (x86)\\cypress\\psoc creator\\4.2\\psoc creator\\import\\gnu\\arm\\5.4
 625              		.file 17 "Generated_Source\\PSoC4/PWM_1.h"
 626              		.file 18 "Generated_Source\\PSoC4/PWM_2.h"