ARM GAS  C:\Users\0\AppData\Local\Temp\cc40vSWr.s 			page 1


   1              		.syntax unified
   2              		.cpu cortex-m0plus
   3              		.fpu softvfp
   4              		.eabi_attribute 20, 1
   5              		.eabi_attribute 21, 1
   6              		.eabi_attribute 23, 3
   7              		.eabi_attribute 24, 1
   8              		.eabi_attribute 25, 1
   9              		.eabi_attribute 26, 1
  10              		.eabi_attribute 30, 1
  11              		.eabi_attribute 34, 0
  12              		.eabi_attribute 18, 4
  13              		.thumb
  14              		.syntax unified
  15              		.file	"main.c"
  16              		.text
  17              	.Ltext0:
  18              		.cfi_sections	.debug_frame
  19              		.section	.text.MY_ISR,"ax",%progbits
  20              		.align	2
  21              		.global	MY_ISR
  22              		.code	16
  23              		.thumb_func
  24              		.type	MY_ISR, %function
  25              	MY_ISR:
  26              	.LFB34:
  27              		.file 1 "main.c"
   1:main.c        **** /* ========================================
   2:main.c        ****  *
   3:main.c        ****  * Copyright YOUR COMPANY, THE YEAR
   4:main.c        ****  * All Rights Reserved
   5:main.c        ****  * UNPUBLISHED, LICENSED SOFTWARE.
   6:main.c        ****  *
   7:main.c        ****  * CONFIDENTIAL AND PROPRIETARY INFORMATION
   8:main.c        ****  * WHICH IS THE PROPERTY OF your company.
   9:main.c        ****  *
  10:main.c        ****  * ========================================
  11:main.c        **** */
  12:main.c        **** #include "project.h"
  13:main.c        **** #include "stdio.h"
  14:main.c        **** #include "string.h"
  15:main.c        **** #include "trace.h"
  16:main.c        **** #include "math.h"
  17:main.c        **** #include "PowerAnalyzer.h"
  18:main.c        **** 
  19:main.c        **** #define N 200
  20:main.c        **** //quandh
  21:main.c        **** CY_ISR(MY_ISR) {    // interrupt timer 
  28              		.loc 1 21 0
  29              		.cfi_startproc
  30              		@ args = 0, pretend = 0, frame = 0
  31              		@ frame_needed = 0, uses_anonymous_args = 0
  32 0000 10B5     		push	{r4, lr}
  33              		.cfi_def_cfa_offset 8
  34              		.cfi_offset 4, -8
  35              		.cfi_offset 14, -4
  22:main.c        ****     
ARM GAS  C:\Users\0\AppData\Local\Temp\cc40vSWr.s 			page 2


  23:main.c        ****     Timer_1_ClearInterrupt(Timer_1_INTR_MASK_TC);
  36              		.loc 1 23 0
  37 0002 0120     		movs	r0, #1
  38 0004 FFF7FEFF 		bl	Timer_1_ClearInterrupt
  39              	.LVL0:
  24:main.c        **** }
  40              		.loc 1 24 0
  41              		@ sp needed
  42 0008 10BD     		pop	{r4, pc}
  43              		.cfi_endproc
  44              	.LFE34:
  45              		.size	MY_ISR, .-MY_ISR
  46 000a C046     		.section	.text.measure_rms,"ax",%progbits
  47              		.align	2
  48              		.global	measure_rms
  49              		.code	16
  50              		.thumb_func
  51              		.type	measure_rms, %function
  52              	measure_rms:
  53              	.LFB35:
  25:main.c        **** 
  26:main.c        **** void measure_rms(int channel)
  27:main.c        **** {
  54              		.loc 1 27 0
  55              		.cfi_startproc
  56              		@ args = 0, pretend = 0, frame = 0
  57              		@ frame_needed = 0, uses_anonymous_args = 0
  58              	.LVL1:
  59 0000 70B5     		push	{r4, r5, r6, lr}
  60              		.cfi_def_cfa_offset 16
  61              		.cfi_offset 4, -16
  62              		.cfi_offset 5, -12
  63              		.cfi_offset 6, -8
  64              		.cfi_offset 14, -4
  65 0002 0500     		movs	r5, r0
  66              	.LVL2:
  67              	.LBB2:
  28:main.c        ****     int adc_value[N] = {0},offset = 0;
  29:main.c        ****     //long int first_millis = millis();
  30:main.c        ****     unsigned long int offset_sum = 0;
  31:main.c        ****     for(uint32 i=0;i<N;i++){
  68              		.loc 1 31 0
  69 0004 0024     		movs	r4, #0
  70 0006 07E0     		b	.L3
  71              	.LVL3:
  72              	.L4:
  32:main.c        ****         adc_value[i]= ADC_Read(channel);
  73              		.loc 1 32 0 discriminator 3
  74 0008 E8B2     		uxtb	r0, r5
  75 000a FFF7FEFF 		bl	ADC_Read
  76              	.LVL4:
  77 000e 0100     		movs	r1, r0
  33:main.c        ****         my_printf("adc_value[i]: %d\r\n", adc_value[i]);
  78              		.loc 1 33 0 discriminator 3
  79 0010 0348     		ldr	r0, .L5
  80 0012 FFF7FEFF 		bl	my_printf
  81              	.LVL5:
ARM GAS  C:\Users\0\AppData\Local\Temp\cc40vSWr.s 			page 3


  31:main.c        ****         adc_value[i]= ADC_Read(channel);
  82              		.loc 1 31 0 discriminator 3
  83 0016 0134     		adds	r4, r4, #1
  84              	.LVL6:
  85              	.L3:
  31:main.c        ****         adc_value[i]= ADC_Read(channel);
  86              		.loc 1 31 0 is_stmt 0 discriminator 1
  87 0018 C72C     		cmp	r4, #199
  88 001a F5D9     		bls	.L4
  89              	.LBE2:
  34:main.c        ****         offset_sum +=adc_value[i];
  35:main.c        ****         
  36:main.c        ****     }
  37:main.c        ****     //LED_Write(~LED_Read());
  38:main.c        **** //        offset =(int)(offset_sum/N);
  39:main.c        **** //    float rms=0;
  40:main.c        **** //    long int sq_sum = 0;
  41:main.c        **** //    for(int i=0;i<N;i++)
  42:main.c        **** //    {
  43:main.c        **** //        adc_value[i] = adc_value[i]-offset;
  44:main.c        **** //    //sq_sum = sq_sum+pow(adc_value[i],2.00); 
  45:main.c        **** //        sq_sum = sq_sum+(long int)adc_value[i]*(long int)adc_value[i];
  46:main.c        **** //    }
  47:main.c        **** //    sq_sum = sq_sum/N;
  48:main.c        **** //    rms = sqrt(sq_sum);
  49:main.c        **** //    rms = ((5.00*rms)/1023.00);
  50:main.c        **** //    return rms;
  51:main.c        **** }
  90              		.loc 1 51 0 is_stmt 1
  91              		@ sp needed
  92              	.LVL7:
  93              	.LVL8:
  94 001c 70BD     		pop	{r4, r5, r6, pc}
  95              	.L6:
  96 001e C046     		.align	2
  97              	.L5:
  98 0020 00000000 		.word	.LC0
  99              		.cfi_endproc
 100              	.LFE35:
 101              		.size	measure_rms, .-measure_rms
 102              		.section	.text.main,"ax",%progbits
 103              		.align	2
 104              		.global	main
 105              		.code	16
 106              		.thumb_func
 107              		.type	main, %function
 108              	main:
 109              	.LFB36:
  52:main.c        **** 
  53:main.c        **** 
  54:main.c        **** int main(void)
  55:main.c        **** {
 110              		.loc 1 55 0
 111              		.cfi_startproc
 112              		@ Volatile: function does not return.
 113              		@ args = 0, pretend = 0, frame = 0
 114              		@ frame_needed = 0, uses_anonymous_args = 0
ARM GAS  C:\Users\0\AppData\Local\Temp\cc40vSWr.s 			page 4


 115 0000 10B5     		push	{r4, lr}
 116              		.cfi_def_cfa_offset 8
 117              		.cfi_offset 4, -8
 118              		.cfi_offset 14, -4
  56:main.c        ****     Timer_1_Start(); // Configure and enable timer
 119              		.loc 1 56 0
 120 0002 FFF7FEFF 		bl	Timer_1_Start
 121              	.LVL9:
  57:main.c        ****     isr_1_StartEx(MY_ISR); // setup timer interrupt sub-routine
 122              		.loc 1 57 0
 123 0006 0848     		ldr	r0, .L9
 124 0008 FFF7FEFF 		bl	isr_1_StartEx
 125              	.LVL10:
  58:main.c        ****     ADC_Start();
 126              		.loc 1 58 0
 127 000c FFF7FEFF 		bl	ADC_Start
 128              	.LVL11:
  59:main.c        ****     ADC_StartConvert();
 129              		.loc 1 59 0
 130 0010 FFF7FEFF 		bl	ADC_StartConvert
 131              	.LVL12:
  60:main.c        ****     UART_Start();
 132              		.loc 1 60 0
 133 0014 FFF7FEFF 		bl	UART_Start
 134              	.LVL13:
  61:main.c        ****     CyGlobalIntEnable; /* Enable global interrupts. */\
 135              		.loc 1 61 0
 136              		.syntax divided
 137              	@ 61 "main.c" 1
 138 0018 62B6     		CPSIE   i
 139              	@ 0 "" 2
 140              		.thumb
 141              		.syntax unified
 142              	.L8:
  62:main.c        ****     float value;
  63:main.c        **** 
  64:main.c        **** 
  65:main.c        ****     for(;;)
  66:main.c        ****     {
  67:main.c        ****      measure_rms(0);
 143              		.loc 1 67 0 discriminator 1
 144 001a 0020     		movs	r0, #0
 145 001c FFF7FEFF 		bl	measure_rms
 146              	.LVL14:
  68:main.c        ****      UART_Stop();
 147              		.loc 1 68 0 discriminator 1
 148 0020 FFF7FEFF 		bl	UART_Stop
 149              	.LVL15:
 150 0024 F9E7     		b	.L8
 151              	.L10:
 152 0026 C046     		.align	2
 153              	.L9:
 154 0028 00000000 		.word	MY_ISR
 155              		.cfi_endproc
 156              	.LFE36:
 157              		.size	main, .-main
 158              		.section	.rodata.str1.4,"aMS",%progbits,1
ARM GAS  C:\Users\0\AppData\Local\Temp\cc40vSWr.s 			page 5


 159              		.align	2
 160              	.LC0:
 161 0000 6164635F 		.ascii	"adc_value[i]: %d\015\012\000"
 161      76616C75 
 161      655B695D 
 161      3A202564 
 161      0D0A00
 162              		.text
 163              	.Letext0:
 164              		.file 2 "Generated_Source\\PSoC4/Timer_1.h"
 165              		.file 3 "PowerAnalyzer.h"
 166              		.file 4 "trace.h"
 167              		.file 5 "Generated_Source\\PSoC4/isr_1.h"
 168              		.file 6 "Generated_Source\\PSoC4/ADC.h"
 169              		.file 7 "Generated_Source\\PSoC4/UART.h"
 170              		.file 8 "Generated_Source\\PSoC4/cytypes.h"